; Function Attrs: mustprogress nounwind uwtable
define dso_local void @_ZN4llvm23ObjectSizeOffsetVisitor24visitConstantPointerNullERNS_19ConstantPointerNullE(ptr dead_on_unwind noalias nocapture writable writeonly sret(%"struct.llvm::SizeOffsetAPInt") align 8 %0, ptr noundef nonnull align 8 dereferenceable(388) %1, ptr nocapture noundef nonnull readonly align 8 dereferenceable(24) %2) local_unnamed_addr #0 align 2 {
  %4 = alloca %"class.llvm::APInt", align 8
  %5 = alloca %"class.llvm::APInt", align 8
  %6 = getelementptr inbounds i8, ptr %1, i64 18
  %7 = load i8, ptr %6, align 2
  %8 = trunc i8 %7 to i1
  br i1 %8, label %14, label %9

9:                                                ; preds = %3
  %10 = getelementptr inbounds nuw i8, ptr %2, i64 8
  %11 = load ptr, ptr %10, align 8
  %12 = getelementptr inbounds nuw i8, ptr %11, i64 8
  %13 = load i32, ptr %12, align 8
  %.not = icmp ult i32 %13, 256
  br i1 %.not, label %17, label %14

14:                                               ; preds = %9, %3
  %15 = getelementptr inbounds i8, ptr %0, i64 8
  tail call void @llvm.memset.p0.i64(ptr noundef nonnull align 8 dereferenceable(32) %15, i8 0, i64 24, i1 false), !alias.scope !686
  store i32 1, ptr %15, align 8, !alias.scope !686
  store i64 0, ptr %0, align 8, !alias.scope !686
  %16 = getelementptr inbounds i8, ptr %0, i64 24
  store i32 1, ptr %16, align 8, !alias.scope !686
  br label %_ZN4llvm5APIntD2Ev.exit3

17:                                               ; preds = %9
  %18 = getelementptr inbounds nuw i8, ptr %1, i64 40
  %19 = getelementptr inbounds nuw i8, ptr %4, i64 8
  %20 = getelementptr inbounds i8, ptr %1, i64 48
  %21 = load i32, ptr %20, align 8
  store i32 %21, ptr %19, align 8
  %22 = icmp ult i32 %21, 65
  %23 = getelementptr inbounds nuw i8, ptr %5, i64 8
  br i1 %22, label %_ZN4llvm5APIntC2ERKS0_.exit.thread, label %_ZN4llvm5APIntC2ERKS0_.exit

_ZN4llvm5APIntC2ERKS0_.exit.thread:               ; preds = %17
  %24 = load i64, ptr %18, align 8
  store i64 %24, ptr %4, align 8
  br label %_ZN4llvm5APIntD2Ev.exit

_ZN4llvm5APIntC2ERKS0_.exit:                      ; preds = %17
  call void @_ZN4llvm5APInt12initSlowCaseERKS0_(ptr noundef nonnull align 8 dereferenceable(12) %4, ptr noundef nonnull align 8 dereferenceable(12) %18) #20
  %.pre = load i32, ptr %20, align 8
  store i32 %.pre, ptr %23, align 8
  %25 = icmp ult i32 %.pre, 65
  br i1 %25, label %_ZN4llvm5APIntD2Ev.exit, label %26

26:                                               ; preds = %_ZN4llvm5APIntC2ERKS0_.exit
  call void @_ZN4llvm5APInt12initSlowCaseERKS0_(ptr noundef nonnull align 8 dereferenceable(12) %5, ptr noundef nonnull align 8 dereferenceable(12) %18) #20
  %.pre4 = load i32, ptr %23, align 8
  br label %_ZN4llvm5APIntD2Ev.exit

_ZN4llvm5APIntD2Ev.exit:                          ; preds = %_ZN4llvm5APIntC2ERKS0_.exit, %_ZN4llvm5APIntC2ERKS0_.exit.thread, %26
  %.sink = phi ptr [ %5, %26 ], [ %18, %_ZN4llvm5APIntC2ERKS0_.exit.thread ], [ %18, %_ZN4llvm5APIntC2ERKS0_.exit ]
  %27 = phi i32 [ %.pre4, %26 ], [ %21, %_ZN4llvm5APIntC2ERKS0_.exit.thread ], [ %.pre, %_ZN4llvm5APIntC2ERKS0_.exit ]
  %.pre5 = load i64, ptr %.sink, align 8
  %28 = load i32, ptr %19, align 8
  %29 = load i64, ptr %4, align 8
  store i32 0, ptr %23, align 8
  %30 = getelementptr inbounds nuw i8, ptr %0, i64 8
  store i32 %28, ptr %30, align 8
  store i64 %29, ptr %0, align 8
  %31 = getelementptr inbounds nuw i8, ptr %0, i64 16
  %32 = getelementptr inbounds i8, ptr %0, i64 24
  store i32 %27, ptr %32, align 8
  store i64 %.pre5, ptr %31, align 8
  br label %_ZN4llvm5APIntD2Ev.exit3

_ZN4llvm5APIntD2Ev.exit3:                         ; preds = %_ZN4llvm5APIntD2Ev.exit, %14
  ret void
}